target datalayout = "e-m:e-p270:32:32-p271:32:32-p272:64:64-i64:64-i128:128-f80:128-n8:16:32:64-S128"
target triple = "x86_64-pc-linux-gnu"

%"struct.std::__detail::_Hash_node_base" = type { ptr }
%"struct.std::__detail::_Prime_rehash_policy" = type { float, i64 }
%"class.sentencepiece::util::Status" = type { %"class.std::unique_ptr.4" }
%"class.std::unique_ptr.4" = type { %"struct.std::__uniq_ptr_data.5" }
%"struct.std::__uniq_ptr_data.5" = type { %"class.std::__uniq_ptr_impl.6" }
%"class.std::__uniq_ptr_impl.6" = type { %"class.std::tuple.7" }
%"class.std::tuple.7" = type { %"struct.std::_Tuple_impl.8" }
%"struct.std::_Tuple_impl.8" = type { %"struct.std::_Head_base.11" }
%"struct.std::_Head_base.11" = type { ptr }
%"class.std::vector" = type { %"struct.std::_Vector_base" }
%"struct.std::_Vector_base" = type { %"struct.std::_Vector_base<std::pair<std::__cxx11::basic_string<char>, float>, std::allocator<std::pair<std::__cxx11::basic_string<char>, float>>>::_Vector_impl" }
%"struct.std::_Vector_base<std::pair<std::__cxx11::basic_string<char>, float>, std::allocator<std::pair<std::__cxx11::basic_string<char>, float>>>::_Vector_impl" = type { %"struct.std::_Vector_base<std::pair<std::__cxx11::basic_string<char>, float>, std::allocator<std::pair<std::__cxx11::basic_string<char>, float>>>::_Vector_impl_data" }
%"struct.std::_Vector_base<std::pair<std::__cxx11::basic_string<char>, float>, std::allocator<std::pair<std::__cxx11::basic_string<char>, float>>>::_Vector_impl_data" = type { ptr, ptr, ptr }
%"class.sentencepiece::TrainerSpec" = type { %"class.google::protobuf::MessageLite", %"class.google::protobuf::internal::ExtensionSet", %"class.google::protobuf::internal::HasBits", %"class.google::protobuf::internal::CachedSize", %"class.google::protobuf::RepeatedPtrField", %"class.google::protobuf::RepeatedPtrField", %"class.google::protobuf::RepeatedPtrField", %"class.google::protobuf::RepeatedPtrField", %"struct.google::protobuf::internal::ArenaStringPtr", %"struct.google::protobuf::internal::ArenaStringPtr", %"struct.google::protobuf::internal::ArenaStringPtr", %"struct.google::protobuf::internal::ArenaStringPtr", %"struct.google::protobuf::internal::ArenaStringPtr", %"struct.google::protobuf::internal::ArenaStringPtr", %"struct.google::protobuf::internal::ArenaStringPtr", %"struct.google::protobuf::internal::ArenaStringPtr", %"struct.google::protobuf::internal::ArenaStringPtr", %"struct.google::protobuf::internal::ArenaStringPtr", i32, i32, i64, i32, i8, i8, i8, i8, i8, i8, i8, i32, float, i64, i32, i32, float, i32, float, i32, i32, i32, i32, i8, i8, i8, i8, i8, i8, i32, i32, i32 }
%"class.google::protobuf::MessageLite" = type { ptr, %"class.google::protobuf::internal::InternalMetadata" }
%"class.google::protobuf::internal::InternalMetadata" = type { ptr }
%"class.google::protobuf::internal::ExtensionSet" = type { ptr, i16, i16, %"union.google::protobuf::internal::ExtensionSet::AllocatedData" }
%"union.google::protobuf::internal::ExtensionSet::AllocatedData" = type { ptr }
%"class.google::protobuf::internal::HasBits" = type { [2 x i32] }
%"class.google::protobuf::internal::CachedSize" = type { %"struct.std::atomic" }
%"struct.std::atomic" = type { %"struct.std::__atomic_base" }
%"struct.std::__atomic_base" = type { i32 }
%"class.google::protobuf::RepeatedPtrField" = type { %"class.google::protobuf::internal::RepeatedPtrFieldBase" }
%"class.google::protobuf::internal::RepeatedPtrFieldBase" = type { ptr, i32, i32, ptr }
%"struct.google::protobuf::internal::ArenaStringPtr" = type { %"class.google::protobuf::internal::TaggedPtr" }
%"class.google::protobuf::internal::TaggedPtr" = type { ptr }
%"class.sentencepiece::NormalizerSpec" = type <{ %"class.google::protobuf::MessageLite", %"class.google::protobuf::internal::ExtensionSet", %"class.google::protobuf::internal::HasBits.23", %"class.google::protobuf::internal::CachedSize", %"struct.google::protobuf::internal::ArenaStringPtr", %"struct.google::protobuf::internal::ArenaStringPtr", %"struct.google::protobuf::internal::ArenaStringPtr", i8, i8, i8, [5 x i8] }>
%"class.google::protobuf::internal::HasBits.23" = type { [1 x i32] }
%"class.sentencepiece::TrainerInterface" = type { ptr, %"class.std::unordered_map.36", %"class.std::vector", %"class.std::vector.56", %"class.sentencepiece::TrainerSpec", %"class.sentencepiece::NormalizerSpec", %"class.sentencepiece::NormalizerSpec", %"class.std::map", %"class.sentencepiece::util::Status", ptr, ptr, %"class.std::vector.64" }
%"class.std::unordered_map.36" = type { %"class.std::_Hashtable.37" }
%"class.std::_Hashtable.37" = type { ptr, i64, %"struct.std::__detail::_Hash_node_base", i64, %"struct.std::__detail::_Prime_rehash_policy", ptr }
%"class.std::vector.56" = type { %"struct.std::_Vector_base.57" }
%"struct.std::_Vector_base.57" = type { %"struct.std::_Vector_base<std::pair<std::__cxx11::basic_string<char>, long>, std::allocator<std::pair<std::__cxx11::basic_string<char>, long>>>::_Vector_impl" }
%"struct.std::_Vector_base<std::pair<std::__cxx11::basic_string<char>, long>, std::allocator<std::pair<std::__cxx11::basic_string<char>, long>>>::_Vector_impl" = type { %"struct.std::_Vector_base<std::pair<std::__cxx11::basic_string<char>, long>, std::allocator<std::pair<std::__cxx11::basic_string<char>, long>>>::_Vector_impl_data" }
%"struct.std::_Vector_base<std::pair<std::__cxx11::basic_string<char>, long>, std::allocator<std::pair<std::__cxx11::basic_string<char>, long>>>::_Vector_impl_data" = type { ptr, ptr, ptr }
%"class.std::map" = type { %"class.std::_Rb_tree" }
%"class.std::_Rb_tree" = type { %"struct.std::_Rb_tree<int, std::pair<const int, std::pair<std::__cxx11::basic_string<char>, sentencepiece::ModelProto_SentencePiece_Type>>, std::_Select1st<std::pair<const int, std::pair<std::__cxx11::basic_string<char>, sentencepiece::ModelProto_SentencePiece_Type>>>, std::less<int>>::_Rb_tree_impl" }
%"struct.std::_Rb_tree<int, std::pair<const int, std::pair<std::__cxx11::basic_string<char>, sentencepiece::ModelProto_SentencePiece_Type>>, std::_Select1st<std::pair<const int, std::pair<std::__cxx11::basic_string<char>, sentencepiece::ModelProto_SentencePiece_Type>>>, std::less<int>>::_Rb_tree_impl" = type { [8 x i8], %"struct.std::_Rb_tree_header" }
%"struct.std::_Rb_tree_header" = type { %"struct.std::_Rb_tree_node_base", i64 }
%"struct.std::_Rb_tree_node_base" = type { i32, ptr, ptr, ptr }
%"class.std::vector.64" = type { %"struct.std::_Vector_base.65" }
%"struct.std::_Vector_base.65" = type { %"struct.std::_Vector_base<std::__cxx11::basic_string<char>, std::allocator<std::__cxx11::basic_string<char>>>::_Vector_impl" }
%"struct.std::_Vector_base<std::__cxx11::basic_string<char>, std::allocator<std::__cxx11::basic_string<char>>>::_Vector_impl" = type { %"struct.std::_Vector_base<std::__cxx11::basic_string<char>, std::allocator<std::__cxx11::basic_string<char>>>::_Vector_impl_data" }
%"struct.std::_Vector_base<std::__cxx11::basic_string<char>, std::allocator<std::__cxx11::basic_string<char>>>::_Vector_impl_data" = type { ptr, ptr, ptr }

; Function Attrs: inlinehint mustprogress nounwind uwtable
define linkonce_odr noundef zeroext i1 @_ZNK13sentencepiece11TrainerSpec38_internal_train_extremely_large_corpusEv(ptr noundef nonnull align 8 dereferenceable(336) %0) #9 comdat align 2 {
  %2 = alloca ptr, align 8
  store ptr %0, ptr %2, align 8, !tbaa !8
  %3 = load ptr, ptr %2, align 8
  %4 = getelementptr inbounds nuw %"class.sentencepiece::TrainerSpec", ptr %3, i32 0, i32 28
  %5 = load i8, ptr %4, align 2, !tbaa !554, !range !78, !noundef !79
  %6 = trunc i8 %5 to i1
  ret i1 %6
}

; Function Attrs: inlinehint mustprogress uwtable
define linkonce_odr noundef zeroext i1 @_ZNK13sentencepiece11TrainerSpec28train_extremely_large_corpusEv(ptr noundef nonnull align 8 dereferenceable(336) %0) #6 comdat align 2 {
  %2 = alloca ptr, align 8
  store ptr %0, ptr %2, align 8, !tbaa !8
  %3 = load ptr, ptr %2, align 8
  %4 = call noundef zeroext i1 @_ZNK13sentencepiece11TrainerSpec38_internal_train_extremely_large_corpusEv(ptr noundef nonnull align 8 dereferenceable(336) %3)
  ret i1 %4
}

; Function Attrs: mustprogress uwtable
define void @_ZN13sentencepiece7unigram7Trainer22MakeSeedSentencePiecesB5cxx11Ev(ptr dead_on_unwind noalias writable sret(%"class.std::vector") align 8 %0, ptr noundef nonnull align 8 dereferenceable(708) %1) #4 align 2 {
  %3 = alloca ptr, align 8
  %4 = alloca ptr, align 8
  store ptr %0, ptr %3, align 8
  store ptr %1, ptr %4, align 8, !tbaa !106
  %5 = load ptr, ptr %4, align 8
  %6 = getelementptr inbounds nuw %"class.sentencepiece::TrainerInterface", ptr %5, i32 0, i32 4
  %7 = call noundef zeroext i1 @_ZNK13sentencepiece11TrainerSpec28train_extremely_large_corpusEv(ptr noundef nonnull align 8 dereferenceable(336) %6)
  br i1 %7, label %8, label %9

8:                                                ; preds = %2
  call void @_ZN13sentencepiece7unigram7Trainer30MakeSeedSentencePiecesInternalIlEESt6vectorISt4pairINSt7__cxx1112basic_stringIcSt11char_traitsIcESaIcEEEfESaISB_EEv(ptr dead_on_unwind writable sret(%"class.std::vector") align 8 %0, ptr noundef nonnull align 8 dereferenceable(708) %5)
  br label %10

9:                                                ; preds = %2
  call void @_ZN13sentencepiece7unigram7Trainer30MakeSeedSentencePiecesInternalIiEESt6vectorISt4pairINSt7__cxx1112basic_stringIcSt11char_traitsIcESaIcEEEfESaISB_EEv(ptr dead_on_unwind writable sret(%"class.std::vector") align 8 %0, ptr noundef nonnull align 8 dereferenceable(708) %5)
  br label %10

10:                                               ; preds = %9, %8
  ret void
}