; Function Attrs: mustprogress uwtable
define void @_ZN13sentencepiece7unigram7Trainer22MakeSeedSentencePiecesB5cxx11Ev(ptr dead_on_unwind noalias writable sret(%"class.std::vector") align 8 %0, ptr noundef nonnull align 8 dereferenceable(708) %1) local_unnamed_addr #3 align 2 {
  %3 = getelementptr inbounds nuw i8, ptr %1, i64 370
  %4 = load i8, ptr %3, align 2, !tbaa !138, !range !131, !noundef !132
  %5 = trunc nuw i8 %4 to i1
  br i1 %5, label %6, label %7

6:                                                ; preds = %2
  tail call void @_ZN13sentencepiece7unigram7Trainer30MakeSeedSentencePiecesInternalIlEESt6vectorISt4pairINSt7__cxx1112basic_stringIcSt11char_traitsIcESaIcEEEfESaISB_EEv(ptr dead_on_unwind writable sret(%"class.std::vector") align 8 %0, ptr noundef nonnull align 8 dereferenceable(708) %1)
  br label %8

7:                                                ; preds = %2
  tail call void @_ZN13sentencepiece7unigram7Trainer30MakeSeedSentencePiecesInternalIiEESt6vectorISt4pairINSt7__cxx1112basic_stringIcSt11char_traitsIcESaIcEEEfESaISB_EEv(ptr dead_on_unwind writable sret(%"class.std::vector") align 8 %0, ptr noundef nonnull align 8 dereferenceable(708) %1)
  br label %8

8:                                                ; preds = %7, %6
  ret void
}